; Function Attrs: mustprogress uwtable
define void @_ZN6icu_779UVector645_initEiR10UErrorCode(ptr noundef nonnull align 8 captures(none) dereferenceable(32) initializes((24, 32)) %0, i32 noundef %1, ptr noundef nonnull writeonly align 4 captures(none) dereferenceable(4) %2) local_unnamed_addr #1 align 2 {
  %4 = icmp slt i32 %1, 1
  %spec.store.select = select i1 %4, i32 8, i32 %1
  %5 = getelementptr inbounds nuw i8, ptr %0, i64 16
  %6 = load i32, ptr %5, align 8, !tbaa !14
  %7 = icmp sgt i32 %6, 0
  %8 = tail call i32 @llvm.smin.i32(i32 %6, i32 %spec.store.select)
  %.0 = select i1 %7, i32 %8, i32 %spec.store.select
  %9 = icmp sgt i32 %.0, 268435455
  br i1 %9, label %10, label %12

10:                                               ; preds = %3
  %11 = tail call i32 @uprv_min_77(i32 noundef 8, i32 noundef %6)
  br label %12

12:                                               ; preds = %10, %3
  %.1 = phi i32 [ %11, %10 ], [ %.0, %3 ]
  %13 = sext i32 %.1 to i64
  %14 = shl nsw i64 %13, 3
  %15 = tail call noalias ptr @uprv_malloc_77(i64 noundef %14) #14
  %16 = getelementptr inbounds nuw i8, ptr %0, i64 24
  store ptr %15, ptr %16, align 8, !tbaa !15
  %17 = icmp eq ptr %15, null
  br i1 %17, label %18, label %19

18:                                               ; preds = %12
  store i32 7, ptr %2, align 4, !tbaa !16
  br label %21

19:                                               ; preds = %12
  %20 = getelementptr inbounds nuw i8, ptr %0, i64 12
  store i32 %.1, ptr %20, align 4, !tbaa !13
  br label %21

21:                                               ; preds = %19, %18
  ret void
}